
test.elf:     file format elf32-littleriscv


Disassembly of section .text:

00000000 <_start>:
   0:	00004137          	lui	sp,0x4
   4:	00000097          	auipc	ra,0x0
   8:	00c080e7          	jalr	12(ra) # 10 <main>

0000000c <loop>:
   c:	0000006f          	j	c <loop>

00000010 <main>:
  10:	fe010113          	addi	sp,sp,-32 # 3fe0 <__mulsi3+0x3f68>
  14:	00112e23          	sw	ra,28(sp)
  18:	00812c23          	sw	s0,24(sp)
  1c:	02010413          	addi	s0,sp,32
  20:	00100793          	li	a5,1
  24:	fef42623          	sw	a5,-20(s0)
  28:	00500793          	li	a5,5
  2c:	fef42423          	sw	a5,-24(s0)
  30:	0280006f          	j	58 <main+0x48>
  34:	fe842583          	lw	a1,-24(s0)
  38:	fec42503          	lw	a0,-20(s0)
  3c:	00000097          	auipc	ra,0x0
  40:	03c080e7          	jalr	60(ra) # 78 <__mulsi3>
  44:	00050793          	mv	a5,a0
  48:	fef42623          	sw	a5,-20(s0)
  4c:	fe842783          	lw	a5,-24(s0)
  50:	fff78793          	addi	a5,a5,-1
  54:	fef42423          	sw	a5,-24(s0)
  58:	fe842783          	lw	a5,-24(s0)
  5c:	fcf04ce3          	bgtz	a5,34 <main+0x24>
  60:	fec42783          	lw	a5,-20(s0)
  64:	00078513          	mv	a0,a5
  68:	01c12083          	lw	ra,28(sp)
  6c:	01812403          	lw	s0,24(sp)
  70:	02010113          	addi	sp,sp,32
  74:	00008067          	ret

00000078 <__mulsi3>:
  78:	00050613          	mv	a2,a0
  7c:	00000513          	li	a0,0
  80:	0015f693          	andi	a3,a1,1
  84:	00068463          	beqz	a3,8c <__mulsi3+0x14>
  88:	00c50533          	add	a0,a0,a2
  8c:	0015d593          	srli	a1,a1,0x1
  90:	00161613          	slli	a2,a2,0x1
  94:	fe0596e3          	bnez	a1,80 <__mulsi3+0x8>
  98:	00008067          	ret
